CCS PCM C Compiler, Version 4.049, 156               03-set-08 19:55

               Filename: F:\teste PIC's 877A\rx_serial.lst

               ROM used: 209 words (3%)
                         Largest free fragment is 2048
               RAM used: 12 (3%) at main() level
                         12 (3%) worst case
               Stack:    1 locations

*
0000:  MOVLW  00
0001:  MOVWF  0A
0002:  GOTO   033
0003:  NOP
.................... #include "F:\teste PIC's 877A\rx_serial.h" 
.................... #include <16F877A.h> 
.................... //////// Standard Header file for the PIC16F877A device //////////////// 
.................... #device PIC16F877A 
.................... #list 
....................  
.................... #device adc=8 
....................  
.................... #FUSES NOWDT                 	//No Watch Dog Timer 
.................... #FUSES XT                    	//Crystal osc <= 4mhz 
.................... #FUSES PUT                   	//Power Up Timer 
.................... #FUSES NOPROTECT             	//Code not protected from reading 
.................... #FUSES NODEBUG               	//No Debug mode for ICD 
.................... #FUSES NOBROWNOUT            	//No brownout reset 
.................... #FUSES NOLVP                 	//No low voltage prgming, B3(PIC16) or B5(PIC18) used for I/O 
.................... #FUSES NOCPD                 	//No EE protection 
.................... #FUSES WRT_50%               	//Lower half of Program Memory is Write Protected 
....................  
.................... #use delay(clock=4000000) 
001C:  MOVLW  25
001D:  MOVWF  04
001E:  BCF    03.7
001F:  MOVF   00,W
0020:  BTFSC  03.2
0021:  GOTO   030
0022:  MOVLW  01
0023:  MOVWF  78
0024:  CLRF   77
0025:  DECFSZ 77,F
0026:  GOTO   025
0027:  DECFSZ 78,F
0028:  GOTO   024
0029:  MOVLW  4A
002A:  MOVWF  77
002B:  DECFSZ 77,F
002C:  GOTO   02B
002D:  GOTO   02E
002E:  DECFSZ 00,F
002F:  GOTO   022
0030:  BCF    0A.3
0031:  BCF    0A.4
0032:  GOTO   09F (RETURN)
.................... #use rs232(baud=1200,parity=N,xmit=PIN_C6,rcv=PIN_C7,bits=8) 
....................  
....................  
....................  
.................... unsigned char str[4]; 
....................  
.................... void main() 
.................... { 
0033:  CLRF   04
0034:  BCF    03.7
0035:  MOVLW  1F
0036:  ANDWF  03,F
0037:  MOVLW  33
0038:  BSF    03.5
0039:  MOVWF  19
003A:  MOVLW  A2
003B:  MOVWF  18
003C:  MOVLW  90
003D:  BCF    03.5
003E:  MOVWF  18
003F:  BSF    03.5
0040:  BSF    1F.0
0041:  BSF    1F.1
0042:  BSF    1F.2
0043:  BCF    1F.3
0044:  MOVLW  07
0045:  MOVWF  1C
....................  
....................    setup_adc_ports(NO_ANALOGS); 
*
0049:  BSF    03.5
004A:  BSF    1F.0
004B:  BSF    1F.1
004C:  BSF    1F.2
004D:  BCF    1F.3
....................    setup_adc(ADC_OFF); 
004E:  BCF    03.5
004F:  BCF    1F.0
....................    setup_psp(PSP_DISABLED); 
0050:  BSF    03.5
0051:  BCF    09.4
....................    setup_spi(SPI_SS_DISABLED); 
*
0046:  MOVLW  FF
0047:  BCF    03.5
0048:  MOVWF  24
*
0052:  BCF    03.5
0053:  BCF    14.5
0054:  BCF    24.5
0055:  MOVF   24,W
0056:  BSF    03.5
0057:  MOVWF  07
0058:  BCF    03.5
0059:  BSF    24.4
005A:  MOVF   24,W
005B:  BSF    03.5
005C:  MOVWF  07
005D:  BCF    03.5
005E:  BCF    24.3
005F:  MOVF   24,W
0060:  BSF    03.5
0061:  MOVWF  07
0062:  MOVLW  01
0063:  BCF    03.5
0064:  MOVWF  14
0065:  MOVLW  00
0066:  BSF    03.5
0067:  MOVWF  14
....................    setup_timer_0(RTCC_INTERNAL|RTCC_DIV_1); 
0068:  MOVF   01,W
0069:  ANDLW  C7
006A:  IORLW  08
006B:  MOVWF  01
....................    setup_timer_1(T1_DISABLED); 
006C:  BCF    03.5
006D:  CLRF   10
....................    setup_timer_2(T2_DISABLED,0,1); 
006E:  MOVLW  00
006F:  MOVWF  78
0070:  MOVWF  12
0071:  MOVLW  00
0072:  BSF    03.5
0073:  MOVWF  12
....................    setup_comparator(NC_NC_NC_NC); 
0074:  MOVLW  07
0075:  MOVWF  1C
0076:  MOVF   05,W
0077:  MOVLW  03
0078:  MOVWF  77
0079:  DECFSZ 77,F
007A:  GOTO   079
007B:  MOVF   1C,W
007C:  BCF    03.5
007D:  BCF    0D.6
....................    setup_vref(FALSE); 
007E:  BSF    03.5
007F:  CLRF   1D
....................    output_e(0); 
0080:  BCF    09.0
0081:  BCF    09.1
0082:  BCF    09.2
0083:  BCF    03.5
0084:  CLRF   09
....................     
....................    while (true) 
....................    { 
....................       str[0]=getc(); 
0085:  BTFSS  0C.5
0086:  GOTO   085
0087:  MOVF   1A,W
0088:  MOVWF  20
....................       str[1]=getc(); 
0089:  BTFSS  0C.5
008A:  GOTO   089
008B:  MOVF   1A,W
008C:  MOVWF  21
....................       str[2]=getc(); 
008D:  BTFSS  0C.5
008E:  GOTO   08D
008F:  MOVF   1A,W
0090:  MOVWF  22
....................       str[3]=getc(); 
0091:  BTFSS  0C.5
0092:  GOTO   091
0093:  MOVF   1A,W
0094:  MOVWF  23
....................  
....................       output_e(255); 
0095:  BSF    03.5
0096:  BCF    09.0
0097:  BCF    09.1
0098:  BCF    09.2
0099:  MOVLW  FF
009A:  BCF    03.5
009B:  MOVWF  09
.................... 	delay_ms(200); 
009C:  MOVLW  C8
009D:  MOVWF  25
009E:  GOTO   01C
.................... 	output_e(0); 
009F:  BSF    03.5
00A0:  BCF    09.0
00A1:  BCF    09.1
00A2:  BCF    09.2
00A3:  BCF    03.5
00A4:  CLRF   09
....................  
....................       printf("   %c%c%c%c...ok!!!",str[0],str[1],str[2],str[3]);	 
00A5:  MOVLW  20
00A6:  BTFSS  0C.4
00A7:  GOTO   0A6
00A8:  MOVWF  19
00A9:  MOVLW  20
00AA:  BTFSS  0C.4
00AB:  GOTO   0AA
00AC:  MOVWF  19
00AD:  MOVLW  20
00AE:  BTFSS  0C.4
00AF:  GOTO   0AE
00B0:  MOVWF  19
00B1:  MOVF   20,W
00B2:  BTFSS  0C.4
00B3:  GOTO   0B2
00B4:  MOVWF  19
00B5:  MOVF   21,W
00B6:  BTFSS  0C.4
00B7:  GOTO   0B6
00B8:  MOVWF  19
00B9:  MOVF   22,W
00BA:  BTFSS  0C.4
00BB:  GOTO   0BA
00BC:  MOVWF  19
00BD:  MOVF   23,W
00BE:  BTFSS  0C.4
00BF:  GOTO   0BE
00C0:  MOVWF  19
00C1:  MOVLW  0B
00C2:  MOVWF  25
00C3:  MOVF   25,W
00C4:  CALL   004
00C5:  INCF   25,F
00C6:  MOVWF  77
00C7:  MOVF   77,W
00C8:  BTFSS  0C.4
00C9:  GOTO   0C8
00CA:  MOVWF  19
00CB:  MOVLW  13
00CC:  SUBWF  25,W
00CD:  BTFSS  03.2
00CE:  GOTO   0C3
....................    } 
00CF:  GOTO   085
.................... } 
00D0:  SLEEP

Configuration Fuses:
   Word  1: 3931   XT NOWDT PUT NODEBUG NOPROTECT NOBROWNOUT NOLVP NOCPD WRT_50%
